; ModuleID = 'bench/vcpkg/original/commands.vsinstances.ll'
source_filename = "bench/vcpkg/original/commands.vsinstances.ll"
target datalayout = "e-m:e-p270:32:32-p271:32:32-p272:64:64-i64:64-i128:128-f80:128-n8:16:32:64-S128"
target triple = "x86_64-pc-linux-gnu"

%"struct.vcpkg::msg::MessageT" = type { i64 }
%"struct.vcpkg::MetadataMessage" = type { i32, %union.anon }
%union.anon = type { ptr }
%"struct.vcpkg::LearnWebsiteLinkLiteral" = type { ptr }
%"struct.vcpkg::CommandOptionsStructure" = type { %"struct.vcpkg::Span", %"struct.vcpkg::Span.0", %"struct.vcpkg::Span.1" }
%"struct.vcpkg::Span" = type { ptr, i64 }
%"struct.vcpkg::Span.0" = type { ptr, i64 }
%"struct.vcpkg::Span.1" = type { ptr, i64 }
%"struct.vcpkg::LineInfo" = type { i32, ptr }
%"struct.vcpkg::LocalizedString" = type { %"class.std::__cxx11::basic_string" }
%"class.std::__cxx11::basic_string" = type { %"struct.std::__cxx11::basic_string<char>::_Alloc_hider", i64, %union.anon.3 }
%"struct.std::__cxx11::basic_string<char>::_Alloc_hider" = type { ptr }
%union.anon.3 = type { i64, [8 x i8] }

$_ZN5vcpkg6Checks21msg_exit_with_messageIJEJEEEvRKNS_8LineInfoENS_3msg8MessageTIJDpT_EEEDpNS5_6TagArgINS_8identityIS7_E4typeET0_EE = comdat any

@.str = private unnamed_addr constant [14 x i8] c"x-vsinstances\00", align 1
@_ZN5vcpkg25msgCmdVSInstancesSynopsisE = external global %"struct.vcpkg::msg::MessageT", align 8
@.str.1 = private unnamed_addr constant [20 x i8] c"vcpkg x-vsinstances\00", align 1
@_ZN5vcpkg26CommandVsInstancesMetadataE = dso_local local_unnamed_addr constant { { ptr, i64 }, %"struct.vcpkg::MetadataMessage", [4 x %"struct.vcpkg::MetadataMessage"], %"struct.vcpkg::LearnWebsiteLinkLiteral", i32, i64, i64, %"struct.vcpkg::CommandOptionsStructure", ptr } { { ptr, i64 } { ptr @.str, i64 13 }, %"struct.vcpkg::MetadataMessage" { i32 1, %union.anon { ptr @_ZN5vcpkg25msgCmdVSInstancesSynopsisE } }, [4 x %"struct.vcpkg::MetadataMessage"] [%"struct.vcpkg::MetadataMessage" { i32 2, %union.anon { ptr @.str.1 } }, %"struct.vcpkg::MetadataMessage" zeroinitializer, %"struct.vcpkg::MetadataMessage" zeroinitializer, %"struct.vcpkg::MetadataMessage" zeroinitializer], %"struct.vcpkg::LearnWebsiteLinkLiteral" zeroinitializer, i32 0, i64 0, i64 0, %"struct.vcpkg::CommandOptionsStructure" zeroinitializer, ptr null }, align 8
@.str.2 = private unnamed_addr constant [129 x i8] c"generated/home/dtcxzyw/WorkSpace/Projects/compilers/llvm-opt-benchmark/bench/vcpkg/vcpkg-tool/src/vcpkg/commands.vsinstances.cpp\00", align 1
@_ZN5vcpkg21msgWindowsOnlyCommandE = external local_unnamed_addr global %"struct.vcpkg::msg::MessageT", align 8

; Function Attrs: mustprogress noreturn uwtable
define dso_local void @_ZN5vcpkg29command_vs_instances_and_exitERKNS_17VcpkgCmdArgumentsERKNS_10VcpkgPathsE(ptr noundef nonnull readnone align 8 captures(none) dereferenceable(1840) %0, ptr noundef nonnull readnone align 8 captures(none) dereferenceable(440) %1) local_unnamed_addr #0 {
  %3 = alloca %"struct.vcpkg::LineInfo", align 8
  call void @llvm.lifetime.start.p0(i64 16, ptr nonnull %3) #6
  store i32 37, ptr %3, align 8, !tbaa !4
  %4 = getelementptr inbounds nuw i8, ptr %3, i64 8
  store ptr @.str.2, ptr %4, align 8, !tbaa !11
  %.sroa.0.0.copyload = load i64, ptr @_ZN5vcpkg21msgWindowsOnlyCommandE, align 8, !tbaa !12
  call void @_ZN5vcpkg6Checks21msg_exit_with_messageIJEJEEEvRKNS_8LineInfoENS_3msg8MessageTIJDpT_EEEDpNS5_6TagArgINS_8identityIS7_E4typeET0_EE(ptr noundef nonnull align 8 dereferenceable(16) %3, i64 %.sroa.0.0.copyload) #7
  unreachable
}

; Function Attrs: mustprogress noreturn uwtable
define linkonce_odr dso_local void @_ZN5vcpkg6Checks21msg_exit_with_messageIJEJEEEvRKNS_8LineInfoENS_3msg8MessageTIJDpT_EEEDpNS5_6TagArgINS_8identityIS7_E4typeET0_EE(ptr noundef nonnull align 8 dereferenceable(16) %0, i64 %1) local_unnamed_addr #0 comdat personality ptr @__gxx_personality_v0 {
  %3 = alloca %"struct.vcpkg::LocalizedString", align 8
  call void @llvm.lifetime.start.p0(i64 32, ptr nonnull %3) #6
  call void @_ZN5vcpkg3msg6formatIJEJEEENS_15LocalizedStringENS0_8MessageTIJDpT_EEEDpNS0_6TagArgINS_8identityIS4_E4typeET0_EE(ptr dead_on_unwind nonnull writable sret(%"struct.vcpkg::LocalizedString") align 8 %3, i64 %1)
  invoke void @_ZN5vcpkg6Checks21msg_exit_with_messageERKNS_8LineInfoERKNS_15LocalizedStringE(ptr noundef nonnull align 8 dereferenceable(16) %0, ptr noundef nonnull align 8 dereferenceable(32) %3) #7
          to label %4 unwind label %5

4:                                                ; preds = %2
  unreachable

5:                                                ; preds = %2
  %6 = landingpad { ptr, i32 }
          cleanup
  %7 = load ptr, ptr %3, align 8, !tbaa !14
  %8 = getelementptr inbounds nuw i8, ptr %3, i64 16
  %9 = icmp eq ptr %7, %8
  br i1 %9, label %_ZNKSt7__cxx1112basic_stringIcSt11char_traitsIcESaIcEE11_M_is_localEv.exit.thread.i.i.i, label %_ZNKSt7__cxx1112basic_stringIcSt11char_traitsIcESaIcEE11_M_is_localEv.exit.i.i.i

_ZNKSt7__cxx1112basic_stringIcSt11char_traitsIcESaIcEE11_M_is_localEv.exit.thread.i.i.i: ; preds = %5
  %10 = getelementptr inbounds nuw i8, ptr %3, i64 8
  %11 = load i64, ptr %10, align 8, !tbaa !17
  %12 = icmp ult i64 %11, 16
  call void @llvm.assume(i1 %12)
  br label %_ZN5vcpkg15LocalizedStringD2Ev.exit

_ZNKSt7__cxx1112basic_stringIcSt11char_traitsIcESaIcEE11_M_is_localEv.exit.i.i.i: ; preds = %5
  %13 = load i64, ptr %8, align 8, !tbaa !18
  %14 = add i64 %13, 1
  call void @_ZdlPvm(ptr noundef %7, i64 noundef %14) #8
  br label %_ZN5vcpkg15LocalizedStringD2Ev.exit

_ZN5vcpkg15LocalizedStringD2Ev.exit:              ; preds = %_ZNKSt7__cxx1112basic_stringIcSt11char_traitsIcESaIcEE11_M_is_localEv.exit.thread.i.i.i, %_ZNKSt7__cxx1112basic_stringIcSt11char_traitsIcESaIcEE11_M_is_localEv.exit.i.i.i
  call void @llvm.lifetime.end.p0(i64 32, ptr nonnull %3) #6
  resume { ptr, i32 } %6
}

; Function Attrs: mustprogress nocallback nofree nosync nounwind willreturn memory(argmem: readwrite)
declare void @llvm.lifetime.start.p0(i64 immarg, ptr captures(none)) #1

; Function Attrs: mustprogress nocallback nofree nosync nounwind willreturn memory(argmem: readwrite)
declare void @llvm.lifetime.end.p0(i64 immarg, ptr captures(none)) #1

; Function Attrs: noreturn
declare void @_ZN5vcpkg6Checks21msg_exit_with_messageERKNS_8LineInfoERKNS_15LocalizedStringE(ptr noundef nonnull align 8 dereferenceable(16), ptr noundef nonnull align 8 dereferenceable(32)) local_unnamed_addr #2

declare void @_ZN5vcpkg3msg6formatIJEJEEENS_15LocalizedStringENS0_8MessageTIJDpT_EEEDpNS0_6TagArgINS_8identityIS4_E4typeET0_EE(ptr dead_on_unwind writable sret(%"struct.vcpkg::LocalizedString") align 8, i64) local_unnamed_addr #3

declare i32 @__gxx_personality_v0(...)

; Function Attrs: nobuiltin nounwind
declare void @_ZdlPvm(ptr noundef, i64 noundef) local_unnamed_addr #4

; Function Attrs: nocallback nofree nosync nounwind willreturn memory(inaccessiblemem: write)
declare void @llvm.assume(i1 noundef) #5


!llvm.module.flags = !{!0, !1, !2, !3}

!0 = !{i32 1, !"wchar_size", i32 4}
!1 = !{i32 8, !"PIC Level", i32 2}
!2 = !{i32 7, !"PIE Level", i32 2}
!3 = !{i32 7, !"uwtable", i32 2}
!4 = !{!5, !6, i64 0}
!5 = !{!"_ZTSN5vcpkg8LineInfoE", !6, i64 0, !9, i64 8}
!6 = !{!"int", !7, i64 0}
!7 = !{!"omnipotent char", !8, i64 0}
!8 = !{!"Simple C++ TBAA"}
!9 = !{!"p1 omnipotent char", !10, i64 0}
!10 = !{!"any pointer", !7, i64 0}
!11 = !{!5, !9, i64 8}
!12 = !{!13, !13, i64 0}
!13 = !{!"long", !7, i64 0}
!14 = !{!15, !9, i64 0}
!15 = !{!"_ZTSNSt7__cxx1112basic_stringIcSt11char_traitsIcESaIcEEE", !16, i64 0, !13, i64 8, !7, i64 16}
!16 = !{!"_ZTSNSt7__cxx1112basic_stringIcSt11char_traitsIcESaIcEE12_Alloc_hiderE", !9, i64 0}
!17 = !{!15, !13, i64 8}
!18 = !{!7, !7, i64 0}
